
double-float.riscv：     文件格式 elf64-littleriscv


Disassembly of section .text:

00000000000100b0 <register_fini>:
   100b0:	00000793          	li	a5,0
   100b4:	00078863          	beqz	a5,100c4 <register_fini+0x14>
   100b8:	00011537          	lui	a0,0x11
   100bc:	58050513          	addi	a0,a0,1408 # 11580 <__libc_fini_array>
   100c0:	51c0106f          	j	115dc <atexit>
   100c4:	00008067          	ret

00000000000100c8 <_start>:
   100c8:	00002197          	auipc	gp,0x2
   100cc:	75818193          	addi	gp,gp,1880 # 12820 <__global_pointer$>
   100d0:	fd818513          	addi	a0,gp,-40 # 127f8 <completed.5525>
   100d4:	01018613          	addi	a2,gp,16 # 12830 <__BSS_END__>
   100d8:	40a60633          	sub	a2,a2,a0
   100dc:	00000593          	li	a1,0
   100e0:	29c010ef          	jal	ra,1137c <memset>
   100e4:	00001517          	auipc	a0,0x1
   100e8:	4f850513          	addi	a0,a0,1272 # 115dc <atexit>
   100ec:	00050863          	beqz	a0,100fc <_start+0x34>
   100f0:	00001517          	auipc	a0,0x1
   100f4:	49050513          	addi	a0,a0,1168 # 11580 <__libc_fini_array>
   100f8:	4e4010ef          	jal	ra,115dc <atexit>
   100fc:	1e4010ef          	jal	ra,112e0 <__libc_init_array>
   10100:	00012503          	lw	a0,0(sp)
   10104:	00810593          	addi	a1,sp,8
   10108:	00000613          	li	a2,0
   1010c:	074000ef          	jal	ra,10180 <main>
   10110:	1a00106f          	j	112b0 <exit>

0000000000010114 <__do_global_dtors_aux>:
   10114:	fd81c703          	lbu	a4,-40(gp) # 127f8 <completed.5525>
   10118:	04071263          	bnez	a4,1015c <__do_global_dtors_aux+0x48>
   1011c:	ff010113          	addi	sp,sp,-16
   10120:	00813023          	sd	s0,0(sp)
   10124:	00078413          	mv	s0,a5
   10128:	00113423          	sd	ra,8(sp)
   1012c:	00000793          	li	a5,0
   10130:	00078a63          	beqz	a5,10144 <__do_global_dtors_aux+0x30>
   10134:	00012537          	lui	a0,0x12
   10138:	00050513          	mv	a0,a0
   1013c:	00000097          	auipc	ra,0x0
   10140:	000000e7          	jalr	zero # 0 <register_fini-0x100b0>
   10144:	00100793          	li	a5,1
   10148:	00813083          	ld	ra,8(sp)
   1014c:	fcf18c23          	sb	a5,-40(gp) # 127f8 <completed.5525>
   10150:	00013403          	ld	s0,0(sp)
   10154:	01010113          	addi	sp,sp,16
   10158:	00008067          	ret
   1015c:	00008067          	ret

0000000000010160 <frame_dummy>:
   10160:	00000793          	li	a5,0
   10164:	00078c63          	beqz	a5,1017c <frame_dummy+0x1c>
   10168:	00012537          	lui	a0,0x12
   1016c:	fe018593          	addi	a1,gp,-32 # 12800 <object.5530>
   10170:	00050513          	mv	a0,a0
   10174:	00000317          	auipc	t1,0x0
   10178:	00000067          	jr	zero # 0 <register_fini-0x100b0>
   1017c:	00008067          	ret

0000000000010180 <main>:
   10180:	fd010113          	addi	sp,sp,-48
   10184:	02113423          	sd	ra,40(sp)
   10188:	02813023          	sd	s0,32(sp)
   1018c:	00913c23          	sd	s1,24(sp)
   10190:	03010413          	addi	s0,sp,48
   10194:	fc042e23          	sw	zero,-36(s0)
   10198:	00400793          	li	a5,4
   1019c:	fcf42e23          	sw	a5,-36(s0)
   101a0:	0780006f          	j	10218 <main+0x98>
   101a4:	000127b7          	lui	a5,0x12
   101a8:	02078713          	addi	a4,a5,32 # 12020 <result_double>
   101ac:	fdc42783          	lw	a5,-36(s0)
   101b0:	00379793          	slli	a5,a5,0x3
   101b4:	00f707b3          	add	a5,a4,a5
   101b8:	0007b483          	ld	s1,0(a5)
   101bc:	fdc42783          	lw	a5,-36(s0)
   101c0:	00078513          	mv	a0,a5
   101c4:	659000ef          	jal	ra,1101c <__floatsidf>
   101c8:	00050713          	mv	a4,a0
   101cc:	000117b7          	lui	a5,0x11
   101d0:	6e87b583          	ld	a1,1768(a5) # 116e8 <__errno+0xc>
   101d4:	00070513          	mv	a0,a4
   101d8:	694000ef          	jal	ra,1086c <__muldf3>
   101dc:	00050793          	mv	a5,a0
   101e0:	00078593          	mv	a1,a5
   101e4:	00048513          	mv	a0,s1
   101e8:	21c000ef          	jal	ra,10404 <__adddf3>
   101ec:	00050793          	mv	a5,a0
   101f0:	00078693          	mv	a3,a5
   101f4:	000127b7          	lui	a5,0x12
   101f8:	02078713          	addi	a4,a5,32 # 12020 <result_double>
   101fc:	fdc42783          	lw	a5,-36(s0)
   10200:	00379793          	slli	a5,a5,0x3
   10204:	00f707b3          	add	a5,a4,a5
   10208:	00d7b023          	sd	a3,0(a5)
   1020c:	fdc42783          	lw	a5,-36(s0)
   10210:	fff7879b          	addiw	a5,a5,-1
   10214:	fcf42e23          	sw	a5,-36(s0)
   10218:	fdc42783          	lw	a5,-36(s0)
   1021c:	0007879b          	sext.w	a5,a5
   10220:	f807d2e3          	bgez	a5,101a4 <main+0x24>
   10224:	00500793          	li	a5,5
   10228:	fcf42e23          	sw	a5,-36(s0)
   1022c:	0780006f          	j	102a4 <main+0x124>
   10230:	000127b7          	lui	a5,0x12
   10234:	02078713          	addi	a4,a5,32 # 12020 <result_double>
   10238:	fdc42783          	lw	a5,-36(s0)
   1023c:	00379793          	slli	a5,a5,0x3
   10240:	00f707b3          	add	a5,a4,a5
   10244:	0007b483          	ld	s1,0(a5)
   10248:	fdc42783          	lw	a5,-36(s0)
   1024c:	00078513          	mv	a0,a5
   10250:	5cd000ef          	jal	ra,1101c <__floatsidf>
   10254:	00050713          	mv	a4,a0
   10258:	000117b7          	lui	a5,0x11
   1025c:	6e87b583          	ld	a1,1768(a5) # 116e8 <__errno+0xc>
   10260:	00070513          	mv	a0,a4
   10264:	608000ef          	jal	ra,1086c <__muldf3>
   10268:	00050793          	mv	a5,a0
   1026c:	00078593          	mv	a1,a5
   10270:	00048513          	mv	a0,s1
   10274:	121000ef          	jal	ra,10b94 <__subdf3>
   10278:	00050793          	mv	a5,a0
   1027c:	00078693          	mv	a3,a5
   10280:	000127b7          	lui	a5,0x12
   10284:	02078713          	addi	a4,a5,32 # 12020 <result_double>
   10288:	fdc42783          	lw	a5,-36(s0)
   1028c:	00379793          	slli	a5,a5,0x3
   10290:	00f707b3          	add	a5,a4,a5
   10294:	00d7b023          	sd	a3,0(a5)
   10298:	fdc42783          	lw	a5,-36(s0)
   1029c:	0017879b          	addiw	a5,a5,1
   102a0:	fcf42e23          	sw	a5,-36(s0)
   102a4:	fdc42783          	lw	a5,-36(s0)
   102a8:	0007871b          	sext.w	a4,a5
   102ac:	00900793          	li	a5,9
   102b0:	f8e7d0e3          	bge	a5,a4,10230 <main+0xb0>
   102b4:	00400793          	li	a5,4
   102b8:	fcf42e23          	sw	a5,-36(s0)
   102bc:	0840006f          	j	10340 <main+0x1c0>
   102c0:	85018713          	addi	a4,gp,-1968 # 12070 <result_float>
   102c4:	fdc42783          	lw	a5,-36(s0)
   102c8:	00279793          	slli	a5,a5,0x2
   102cc:	00f707b3          	add	a5,a4,a5
   102d0:	0007a783          	lw	a5,0(a5)
   102d4:	00078513          	mv	a0,a5
   102d8:	5c9000ef          	jal	ra,110a0 <__extendsfdf2>
   102dc:	00050493          	mv	s1,a0
   102e0:	fdc42783          	lw	a5,-36(s0)
   102e4:	00078513          	mv	a0,a5
   102e8:	535000ef          	jal	ra,1101c <__floatsidf>
   102ec:	00050713          	mv	a4,a0
   102f0:	000117b7          	lui	a5,0x11
   102f4:	6e87b583          	ld	a1,1768(a5) # 116e8 <__errno+0xc>
   102f8:	00070513          	mv	a0,a4
   102fc:	570000ef          	jal	ra,1086c <__muldf3>
   10300:	00050793          	mv	a5,a0
   10304:	00078593          	mv	a1,a5
   10308:	00048513          	mv	a0,s1
   1030c:	0f8000ef          	jal	ra,10404 <__adddf3>
   10310:	00050793          	mv	a5,a0
   10314:	00078513          	mv	a0,a5
   10318:	62d000ef          	jal	ra,11144 <__truncdfsf2>
   1031c:	00050693          	mv	a3,a0
   10320:	85018713          	addi	a4,gp,-1968 # 12070 <result_float>
   10324:	fdc42783          	lw	a5,-36(s0)
   10328:	00279793          	slli	a5,a5,0x2
   1032c:	00f707b3          	add	a5,a4,a5
   10330:	00d7a023          	sw	a3,0(a5)
   10334:	fdc42783          	lw	a5,-36(s0)
   10338:	fff7879b          	addiw	a5,a5,-1
   1033c:	fcf42e23          	sw	a5,-36(s0)
   10340:	fdc42783          	lw	a5,-36(s0)
   10344:	0007879b          	sext.w	a5,a5
   10348:	f607dce3          	bgez	a5,102c0 <main+0x140>
   1034c:	00500793          	li	a5,5
   10350:	fcf42e23          	sw	a5,-36(s0)
   10354:	0840006f          	j	103d8 <main+0x258>
   10358:	85018713          	addi	a4,gp,-1968 # 12070 <result_float>
   1035c:	fdc42783          	lw	a5,-36(s0)
   10360:	00279793          	slli	a5,a5,0x2
   10364:	00f707b3          	add	a5,a4,a5
   10368:	0007a783          	lw	a5,0(a5)
   1036c:	00078513          	mv	a0,a5
   10370:	531000ef          	jal	ra,110a0 <__extendsfdf2>
   10374:	00050493          	mv	s1,a0
   10378:	fdc42783          	lw	a5,-36(s0)
   1037c:	00078513          	mv	a0,a5
   10380:	49d000ef          	jal	ra,1101c <__floatsidf>
   10384:	00050713          	mv	a4,a0
   10388:	000117b7          	lui	a5,0x11
   1038c:	6e87b583          	ld	a1,1768(a5) # 116e8 <__errno+0xc>
   10390:	00070513          	mv	a0,a4
   10394:	4d8000ef          	jal	ra,1086c <__muldf3>
   10398:	00050793          	mv	a5,a0
   1039c:	00078593          	mv	a1,a5
   103a0:	00048513          	mv	a0,s1
   103a4:	7f0000ef          	jal	ra,10b94 <__subdf3>
   103a8:	00050793          	mv	a5,a0
   103ac:	00078513          	mv	a0,a5
   103b0:	595000ef          	jal	ra,11144 <__truncdfsf2>
   103b4:	00050693          	mv	a3,a0
   103b8:	85018713          	addi	a4,gp,-1968 # 12070 <result_float>
   103bc:	fdc42783          	lw	a5,-36(s0)
   103c0:	00279793          	slli	a5,a5,0x2
   103c4:	00f707b3          	add	a5,a4,a5
   103c8:	00d7a023          	sw	a3,0(a5)
   103cc:	fdc42783          	lw	a5,-36(s0)
   103d0:	0017879b          	addiw	a5,a5,1
   103d4:	fcf42e23          	sw	a5,-36(s0)
   103d8:	fdc42783          	lw	a5,-36(s0)
   103dc:	0007871b          	sext.w	a4,a5
   103e0:	00900793          	li	a5,9
   103e4:	f6e7dae3          	bge	a5,a4,10358 <main+0x1d8>
   103e8:	00000793          	li	a5,0
   103ec:	00078513          	mv	a0,a5
   103f0:	02813083          	ld	ra,40(sp)
   103f4:	02013403          	ld	s0,32(sp)
   103f8:	01813483          	ld	s1,24(sp)
   103fc:	03010113          	addi	sp,sp,48
   10400:	00008067          	ret

0000000000010404 <__adddf3>:
   10404:	fe010113          	addi	sp,sp,-32
   10408:	fff00813          	li	a6,-1
   1040c:	00c85713          	srli	a4,a6,0xc
   10410:	0345d613          	srli	a2,a1,0x34
   10414:	00813823          	sd	s0,16(sp)
   10418:	03455413          	srli	s0,a0,0x34
   1041c:	00a777b3          	and	a5,a4,a0
   10420:	00913423          	sd	s1,8(sp)
   10424:	00b77733          	and	a4,a4,a1
   10428:	7ff47413          	andi	s0,s0,2047
   1042c:	7ff67613          	andi	a2,a2,2047
   10430:	00113c23          	sd	ra,24(sp)
   10434:	01213023          	sd	s2,0(sp)
   10438:	03f55493          	srli	s1,a0,0x3f
   1043c:	03f5d593          	srli	a1,a1,0x3f
   10440:	00379793          	slli	a5,a5,0x3
   10444:	00371713          	slli	a4,a4,0x3
   10448:	40c406bb          	subw	a3,s0,a2
   1044c:	18b49c63          	bne	s1,a1,105e4 <__adddf3+0x1e0>
   10450:	0006859b          	sext.w	a1,a3
   10454:	0ab05863          	blez	a1,10504 <__adddf3+0x100>
   10458:	06061663          	bnez	a2,104c4 <__adddf3+0xc0>
   1045c:	04070663          	beqz	a4,104a8 <__adddf3+0xa4>
   10460:	fff6859b          	addiw	a1,a3,-1
   10464:	02059e63          	bnez	a1,104a0 <__adddf3+0x9c>
   10468:	00e787b3          	add	a5,a5,a4
   1046c:	00879713          	slli	a4,a5,0x8
   10470:	02075c63          	bgez	a4,104a8 <__adddf3+0xa4>
   10474:	00140413          	addi	s0,s0,1
   10478:	7ff00713          	li	a4,2047
   1047c:	34e40a63          	beq	s0,a4,107d0 <__adddf3+0x3cc>
   10480:	1ff00713          	li	a4,511
   10484:	03671713          	slli	a4,a4,0x36
   10488:	0017f693          	andi	a3,a5,1
   1048c:	fff70713          	addi	a4,a4,-1
   10490:	0017d793          	srli	a5,a5,0x1
   10494:	00e7f7b3          	and	a5,a5,a4
   10498:	00d7e7b3          	or	a5,a5,a3
   1049c:	00c0006f          	j	104a8 <__adddf3+0xa4>
   104a0:	7ff00693          	li	a3,2047
   104a4:	02d41a63          	bne	s0,a3,104d8 <__adddf3+0xd4>
   104a8:	0077f713          	andi	a4,a5,7
   104ac:	32070463          	beqz	a4,107d4 <__adddf3+0x3d0>
   104b0:	00f7f713          	andi	a4,a5,15
   104b4:	00400693          	li	a3,4
   104b8:	30d70e63          	beq	a4,a3,107d4 <__adddf3+0x3d0>
   104bc:	00478793          	addi	a5,a5,4
   104c0:	3140006f          	j	107d4 <__adddf3+0x3d0>
   104c4:	7ff00693          	li	a3,2047
   104c8:	fed400e3          	beq	s0,a3,104a8 <__adddf3+0xa4>
   104cc:	00100693          	li	a3,1
   104d0:	03769693          	slli	a3,a3,0x37
   104d4:	00d76733          	or	a4,a4,a3
   104d8:	03800613          	li	a2,56
   104dc:	00100693          	li	a3,1
   104e0:	00b64e63          	blt	a2,a1,104fc <__adddf3+0xf8>
   104e4:	04000693          	li	a3,64
   104e8:	00b75633          	srl	a2,a4,a1
   104ec:	40b685bb          	subw	a1,a3,a1
   104f0:	00b71733          	sll	a4,a4,a1
   104f4:	00e03733          	snez	a4,a4
   104f8:	00e666b3          	or	a3,a2,a4
   104fc:	00d787b3          	add	a5,a5,a3
   10500:	f6dff06f          	j	1046c <__adddf3+0x68>
   10504:	06058a63          	beqz	a1,10578 <__adddf3+0x174>
   10508:	04041a63          	bnez	s0,1055c <__adddf3+0x158>
   1050c:	2a078263          	beqz	a5,107b0 <__adddf3+0x3ac>
   10510:	01059863          	bne	a1,a6,10520 <__adddf3+0x11c>
   10514:	00e787b3          	add	a5,a5,a4
   10518:	00060413          	mv	s0,a2
   1051c:	f51ff06f          	j	1046c <__adddf3+0x68>
   10520:	7ff00593          	li	a1,2047
   10524:	2ab60063          	beq	a2,a1,107c4 <__adddf3+0x3c0>
   10528:	fff6c693          	not	a3,a3
   1052c:	0006869b          	sext.w	a3,a3
   10530:	03800513          	li	a0,56
   10534:	00100593          	li	a1,1
   10538:	00d54e63          	blt	a0,a3,10554 <__adddf3+0x150>
   1053c:	04000593          	li	a1,64
   10540:	00d7d533          	srl	a0,a5,a3
   10544:	40d586bb          	subw	a3,a1,a3
   10548:	00d797b3          	sll	a5,a5,a3
   1054c:	00f037b3          	snez	a5,a5
   10550:	00f565b3          	or	a1,a0,a5
   10554:	00e587b3          	add	a5,a1,a4
   10558:	fc1ff06f          	j	10518 <__adddf3+0x114>
   1055c:	7ff00593          	li	a1,2047
   10560:	26b60263          	beq	a2,a1,107c4 <__adddf3+0x3c0>
   10564:	00100593          	li	a1,1
   10568:	03759593          	slli	a1,a1,0x37
   1056c:	40d006bb          	negw	a3,a3
   10570:	00b7e7b3          	or	a5,a5,a1
   10574:	fbdff06f          	j	10530 <__adddf3+0x12c>
   10578:	00140693          	addi	a3,s0,1
   1057c:	7fe6f613          	andi	a2,a3,2046
   10580:	04061663          	bnez	a2,105cc <__adddf3+0x1c8>
   10584:	02041663          	bnez	s0,105b0 <__adddf3+0x1ac>
   10588:	22078a63          	beqz	a5,107bc <__adddf3+0x3b8>
   1058c:	f0070ee3          	beqz	a4,104a8 <__adddf3+0xa4>
   10590:	00e787b3          	add	a5,a5,a4
   10594:	00879713          	slli	a4,a5,0x8
   10598:	f00758e3          	bgez	a4,104a8 <__adddf3+0xa4>
   1059c:	03781813          	slli	a6,a6,0x37
   105a0:	fff80813          	addi	a6,a6,-1
   105a4:	0107f7b3          	and	a5,a5,a6
   105a8:	00100413          	li	s0,1
   105ac:	efdff06f          	j	104a8 <__adddf3+0xa4>
   105b0:	20078a63          	beqz	a5,107c4 <__adddf3+0x3c0>
   105b4:	16070e63          	beqz	a4,10730 <__adddf3+0x32c>
   105b8:	00100793          	li	a5,1
   105bc:	00000493          	li	s1,0
   105c0:	03679793          	slli	a5,a5,0x36
   105c4:	7ff00413          	li	s0,2047
   105c8:	20c0006f          	j	107d4 <__adddf3+0x3d0>
   105cc:	7ff00613          	li	a2,2047
   105d0:	1ec68e63          	beq	a3,a2,107cc <__adddf3+0x3c8>
   105d4:	00e787b3          	add	a5,a5,a4
   105d8:	0017d793          	srli	a5,a5,0x1
   105dc:	00068413          	mv	s0,a3
   105e0:	ec9ff06f          	j	104a8 <__adddf3+0xa4>
   105e4:	0006851b          	sext.w	a0,a3
   105e8:	06a05c63          	blez	a0,10660 <__adddf3+0x25c>
   105ec:	04061e63          	bnez	a2,10648 <__adddf3+0x244>
   105f0:	ea070ce3          	beqz	a4,104a8 <__adddf3+0xa4>
   105f4:	fff6851b          	addiw	a0,a3,-1
   105f8:	00051e63          	bnez	a0,10614 <__adddf3+0x210>
   105fc:	40e787b3          	sub	a5,a5,a4
   10600:	00879713          	slli	a4,a5,0x8
   10604:	ea0752e3          	bgez	a4,104a8 <__adddf3+0xa4>
   10608:	00979793          	slli	a5,a5,0x9
   1060c:	0097d913          	srli	s2,a5,0x9
   10610:	13c0006f          	j	1074c <__adddf3+0x348>
   10614:	7ff00693          	li	a3,2047
   10618:	e8d408e3          	beq	s0,a3,104a8 <__adddf3+0xa4>
   1061c:	03800613          	li	a2,56
   10620:	00100693          	li	a3,1
   10624:	00a64e63          	blt	a2,a0,10640 <__adddf3+0x23c>
   10628:	04000693          	li	a3,64
   1062c:	00a75633          	srl	a2,a4,a0
   10630:	40a6853b          	subw	a0,a3,a0
   10634:	00a71733          	sll	a4,a4,a0
   10638:	00e03733          	snez	a4,a4
   1063c:	00e666b3          	or	a3,a2,a4
   10640:	40d787b3          	sub	a5,a5,a3
   10644:	fbdff06f          	j	10600 <__adddf3+0x1fc>
   10648:	7ff00693          	li	a3,2047
   1064c:	e4d40ee3          	beq	s0,a3,104a8 <__adddf3+0xa4>
   10650:	00100693          	li	a3,1
   10654:	03769693          	slli	a3,a3,0x37
   10658:	00d76733          	or	a4,a4,a3
   1065c:	fc1ff06f          	j	1061c <__adddf3+0x218>
   10660:	06050c63          	beqz	a0,106d8 <__adddf3+0x2d4>
   10664:	04041c63          	bnez	s0,106bc <__adddf3+0x2b8>
   10668:	1e078063          	beqz	a5,10848 <__adddf3+0x444>
   1066c:	01051a63          	bne	a0,a6,10680 <__adddf3+0x27c>
   10670:	40f707b3          	sub	a5,a4,a5
   10674:	00060413          	mv	s0,a2
   10678:	00058493          	mv	s1,a1
   1067c:	f85ff06f          	j	10600 <__adddf3+0x1fc>
   10680:	7ff00513          	li	a0,2047
   10684:	1ca60a63          	beq	a2,a0,10858 <__adddf3+0x454>
   10688:	fff6c693          	not	a3,a3
   1068c:	0006869b          	sext.w	a3,a3
   10690:	03800813          	li	a6,56
   10694:	00100513          	li	a0,1
   10698:	00d84e63          	blt	a6,a3,106b4 <__adddf3+0x2b0>
   1069c:	04000513          	li	a0,64
   106a0:	00d7d833          	srl	a6,a5,a3
   106a4:	40d506bb          	subw	a3,a0,a3
   106a8:	00d797b3          	sll	a5,a5,a3
   106ac:	00f037b3          	snez	a5,a5
   106b0:	00f86533          	or	a0,a6,a5
   106b4:	40a707b3          	sub	a5,a4,a0
   106b8:	fbdff06f          	j	10674 <__adddf3+0x270>
   106bc:	7ff00513          	li	a0,2047
   106c0:	18a60c63          	beq	a2,a0,10858 <__adddf3+0x454>
   106c4:	00100513          	li	a0,1
   106c8:	03751513          	slli	a0,a0,0x37
   106cc:	40d006bb          	negw	a3,a3
   106d0:	00a7e7b3          	or	a5,a5,a0
   106d4:	fbdff06f          	j	10690 <__adddf3+0x28c>
   106d8:	00140693          	addi	a3,s0,1
   106dc:	7fe6f693          	andi	a3,a3,2046
   106e0:	04069c63          	bnez	a3,10738 <__adddf3+0x334>
   106e4:	02041e63          	bnez	s0,10720 <__adddf3+0x31c>
   106e8:	00079c63          	bnez	a5,10700 <__adddf3+0x2fc>
   106ec:	00070793          	mv	a5,a4
   106f0:	16071063          	bnez	a4,10850 <__adddf3+0x44c>
   106f4:	00000793          	li	a5,0
   106f8:	00000493          	li	s1,0
   106fc:	0d80006f          	j	107d4 <__adddf3+0x3d0>
   10700:	da0704e3          	beqz	a4,104a8 <__adddf3+0xa4>
   10704:	40e786b3          	sub	a3,a5,a4
   10708:	00869613          	slli	a2,a3,0x8
   1070c:	40f707b3          	sub	a5,a4,a5
   10710:	14064063          	bltz	a2,10850 <__adddf3+0x44c>
   10714:	fe0680e3          	beqz	a3,106f4 <__adddf3+0x2f0>
   10718:	00068793          	mv	a5,a3
   1071c:	d8dff06f          	j	104a8 <__adddf3+0xa4>
   10720:	e8079ae3          	bnez	a5,105b4 <__adddf3+0x1b0>
   10724:	e8070ae3          	beqz	a4,105b8 <__adddf3+0x1b4>
   10728:	00070793          	mv	a5,a4
   1072c:	00058493          	mv	s1,a1
   10730:	7ff00413          	li	s0,2047
   10734:	d75ff06f          	j	104a8 <__adddf3+0xa4>
   10738:	40e78933          	sub	s2,a5,a4
   1073c:	00891693          	slli	a3,s2,0x8
   10740:	0406d463          	bgez	a3,10788 <__adddf3+0x384>
   10744:	40f70933          	sub	s2,a4,a5
   10748:	00058493          	mv	s1,a1
   1074c:	00090513          	mv	a0,s2
   10750:	325000ef          	jal	ra,11274 <__clzdi2>
   10754:	ff85079b          	addiw	a5,a0,-8
   10758:	00f91933          	sll	s2,s2,a5
   1075c:	0287ce63          	blt	a5,s0,10798 <__adddf3+0x394>
   10760:	4087853b          	subw	a0,a5,s0
   10764:	0015051b          	addiw	a0,a0,1
   10768:	04000413          	li	s0,64
   1076c:	00a957b3          	srl	a5,s2,a0
   10770:	40a4053b          	subw	a0,s0,a0
   10774:	00a91933          	sll	s2,s2,a0
   10778:	01203933          	snez	s2,s2
   1077c:	0127e7b3          	or	a5,a5,s2
   10780:	00000413          	li	s0,0
   10784:	d25ff06f          	j	104a8 <__adddf3+0xa4>
   10788:	fc0912e3          	bnez	s2,1074c <__adddf3+0x348>
   1078c:	00000793          	li	a5,0
   10790:	00000413          	li	s0,0
   10794:	f65ff06f          	j	106f8 <__adddf3+0x2f4>
   10798:	40f40433          	sub	s0,s0,a5
   1079c:	fff00793          	li	a5,-1
   107a0:	03779793          	slli	a5,a5,0x37
   107a4:	fff78793          	addi	a5,a5,-1
   107a8:	00f977b3          	and	a5,s2,a5
   107ac:	cfdff06f          	j	104a8 <__adddf3+0xa4>
   107b0:	00070793          	mv	a5,a4
   107b4:	00060413          	mv	s0,a2
   107b8:	cf1ff06f          	j	104a8 <__adddf3+0xa4>
   107bc:	00070793          	mv	a5,a4
   107c0:	ce9ff06f          	j	104a8 <__adddf3+0xa4>
   107c4:	00070793          	mv	a5,a4
   107c8:	f69ff06f          	j	10730 <__adddf3+0x32c>
   107cc:	7ff00413          	li	s0,2047
   107d0:	00000793          	li	a5,0
   107d4:	00879713          	slli	a4,a5,0x8
   107d8:	02075063          	bgez	a4,107f8 <__adddf3+0x3f4>
   107dc:	00140413          	addi	s0,s0,1
   107e0:	7ff00713          	li	a4,2047
   107e4:	08e40063          	beq	s0,a4,10864 <__adddf3+0x460>
   107e8:	fff00713          	li	a4,-1
   107ec:	03771713          	slli	a4,a4,0x37
   107f0:	fff70713          	addi	a4,a4,-1
   107f4:	00e7f7b3          	and	a5,a5,a4
   107f8:	7ff00713          	li	a4,2047
   107fc:	0037d793          	srli	a5,a5,0x3
   10800:	00e41a63          	bne	s0,a4,10814 <__adddf3+0x410>
   10804:	00078863          	beqz	a5,10814 <__adddf3+0x410>
   10808:	00100793          	li	a5,1
   1080c:	03379793          	slli	a5,a5,0x33
   10810:	00000493          	li	s1,0
   10814:	7ff47413          	andi	s0,s0,2047
   10818:	00c79793          	slli	a5,a5,0xc
   1081c:	03441413          	slli	s0,s0,0x34
   10820:	00c7d793          	srli	a5,a5,0xc
   10824:	01813083          	ld	ra,24(sp)
   10828:	00f467b3          	or	a5,s0,a5
   1082c:	01013403          	ld	s0,16(sp)
   10830:	03f49513          	slli	a0,s1,0x3f
   10834:	00013903          	ld	s2,0(sp)
   10838:	00813483          	ld	s1,8(sp)
   1083c:	00a7e533          	or	a0,a5,a0
   10840:	02010113          	addi	sp,sp,32
   10844:	00008067          	ret
   10848:	00070793          	mv	a5,a4
   1084c:	00060413          	mv	s0,a2
   10850:	00058493          	mv	s1,a1
   10854:	c55ff06f          	j	104a8 <__adddf3+0xa4>
   10858:	00070793          	mv	a5,a4
   1085c:	7ff00413          	li	s0,2047
   10860:	ff1ff06f          	j	10850 <__adddf3+0x44c>
   10864:	00000793          	li	a5,0
   10868:	f91ff06f          	j	107f8 <__adddf3+0x3f4>

000000000001086c <__muldf3>:
   1086c:	fc010113          	addi	sp,sp,-64
   10870:	03455793          	srli	a5,a0,0x34
   10874:	02913423          	sd	s1,40(sp)
   10878:	03213023          	sd	s2,32(sp)
   1087c:	01413823          	sd	s4,16(sp)
   10880:	00c51493          	slli	s1,a0,0xc
   10884:	02113c23          	sd	ra,56(sp)
   10888:	02813823          	sd	s0,48(sp)
   1088c:	01313c23          	sd	s3,24(sp)
   10890:	01513423          	sd	s5,8(sp)
   10894:	03579713          	slli	a4,a5,0x35
   10898:	00058a13          	mv	s4,a1
   1089c:	00c4d493          	srli	s1,s1,0xc
   108a0:	03f55913          	srli	s2,a0,0x3f
   108a4:	08070e63          	beqz	a4,10940 <__muldf3+0xd4>
   108a8:	7ff7f993          	andi	s3,a5,2047
   108ac:	7ff00793          	li	a5,2047
   108b0:	0af98a63          	beq	s3,a5,10964 <__muldf3+0xf8>
   108b4:	00100793          	li	a5,1
   108b8:	00349493          	slli	s1,s1,0x3
   108bc:	03779793          	slli	a5,a5,0x37
   108c0:	00f4e4b3          	or	s1,s1,a5
   108c4:	c0198993          	addi	s3,s3,-1023
   108c8:	00000a93          	li	s5,0
   108cc:	034a5793          	srli	a5,s4,0x34
   108d0:	00ca1413          	slli	s0,s4,0xc
   108d4:	03579693          	slli	a3,a5,0x35
   108d8:	00c45413          	srli	s0,s0,0xc
   108dc:	7ff7f713          	andi	a4,a5,2047
   108e0:	03fa5a13          	srli	s4,s4,0x3f
   108e4:	0a068063          	beqz	a3,10984 <__muldf3+0x118>
   108e8:	7ff00793          	li	a5,2047
   108ec:	0af70e63          	beq	a4,a5,109a8 <__muldf3+0x13c>
   108f0:	00100793          	li	a5,1
   108f4:	00341413          	slli	s0,s0,0x3
   108f8:	03779793          	slli	a5,a5,0x37
   108fc:	00f46433          	or	s0,s0,a5
   10900:	c0170713          	addi	a4,a4,-1023
   10904:	00000793          	li	a5,0
   10908:	00e989b3          	add	s3,s3,a4
   1090c:	002a9713          	slli	a4,s5,0x2
   10910:	00f76733          	or	a4,a4,a5
   10914:	fff70713          	addi	a4,a4,-1
   10918:	00e00613          	li	a2,14
   1091c:	01494533          	xor	a0,s2,s4
   10920:	00198693          	addi	a3,s3,1
   10924:	0ae66263          	bltu	a2,a4,109c8 <__muldf3+0x15c>
   10928:	00011637          	lui	a2,0x11
   1092c:	00271713          	slli	a4,a4,0x2
   10930:	6f060613          	addi	a2,a2,1776 # 116f0 <__errno+0x14>
   10934:	00c70733          	add	a4,a4,a2
   10938:	00072703          	lw	a4,0(a4)
   1093c:	00070067          	jr	a4
   10940:	02048c63          	beqz	s1,10978 <__muldf3+0x10c>
   10944:	00048513          	mv	a0,s1
   10948:	12d000ef          	jal	ra,11274 <__clzdi2>
   1094c:	0005071b          	sext.w	a4,a0
   10950:	c0d00993          	li	s3,-1011
   10954:	ff85051b          	addiw	a0,a0,-8
   10958:	00a494b3          	sll	s1,s1,a0
   1095c:	40e989b3          	sub	s3,s3,a4
   10960:	f69ff06f          	j	108c8 <__muldf3+0x5c>
   10964:	7ff00993          	li	s3,2047
   10968:	00200a93          	li	s5,2
   1096c:	f60480e3          	beqz	s1,108cc <__muldf3+0x60>
   10970:	00300a93          	li	s5,3
   10974:	f59ff06f          	j	108cc <__muldf3+0x60>
   10978:	00000993          	li	s3,0
   1097c:	00100a93          	li	s5,1
   10980:	f4dff06f          	j	108cc <__muldf3+0x60>
   10984:	02040c63          	beqz	s0,109bc <__muldf3+0x150>
   10988:	00040513          	mv	a0,s0
   1098c:	0e9000ef          	jal	ra,11274 <__clzdi2>
   10990:	0005079b          	sext.w	a5,a0
   10994:	c0d00713          	li	a4,-1011
   10998:	ff85051b          	addiw	a0,a0,-8
   1099c:	00a41433          	sll	s0,s0,a0
   109a0:	40f70733          	sub	a4,a4,a5
   109a4:	f61ff06f          	j	10904 <__muldf3+0x98>
   109a8:	7ff00713          	li	a4,2047
   109ac:	00200793          	li	a5,2
   109b0:	f4040ce3          	beqz	s0,10908 <__muldf3+0x9c>
   109b4:	00300793          	li	a5,3
   109b8:	f51ff06f          	j	10908 <__muldf3+0x9c>
   109bc:	00000713          	li	a4,0
   109c0:	00100793          	li	a5,1
   109c4:	f45ff06f          	j	10908 <__muldf3+0x9c>
   109c8:	fff00793          	li	a5,-1
   109cc:	0207d793          	srli	a5,a5,0x20
   109d0:	0204d713          	srli	a4,s1,0x20
   109d4:	02045613          	srli	a2,s0,0x20
   109d8:	00f4f4b3          	and	s1,s1,a5
   109dc:	00f47433          	and	s0,s0,a5
   109e0:	029405b3          	mul	a1,s0,s1
   109e4:	02870433          	mul	s0,a4,s0
   109e8:	02c70733          	mul	a4,a4,a2
   109ec:	02960633          	mul	a2,a2,s1
   109f0:	0205d493          	srli	s1,a1,0x20
   109f4:	00860633          	add	a2,a2,s0
   109f8:	00c484b3          	add	s1,s1,a2
   109fc:	0084f863          	bgeu	s1,s0,10a0c <__muldf3+0x1a0>
   10a00:	00100793          	li	a5,1
   10a04:	02079793          	slli	a5,a5,0x20
   10a08:	00f70733          	add	a4,a4,a5
   10a0c:	fff00413          	li	s0,-1
   10a10:	02045413          	srli	s0,s0,0x20
   10a14:	0084f7b3          	and	a5,s1,s0
   10a18:	0085f5b3          	and	a1,a1,s0
   10a1c:	02079793          	slli	a5,a5,0x20
   10a20:	00b787b3          	add	a5,a5,a1
   10a24:	00979413          	slli	s0,a5,0x9
   10a28:	0204d493          	srli	s1,s1,0x20
   10a2c:	00803433          	snez	s0,s0
   10a30:	0377d793          	srli	a5,a5,0x37
   10a34:	00e484b3          	add	s1,s1,a4
   10a38:	00f467b3          	or	a5,s0,a5
   10a3c:	00949493          	slli	s1,s1,0x9
   10a40:	00f4e433          	or	s0,s1,a5
   10a44:	00749793          	slli	a5,s1,0x7
   10a48:	0807de63          	bgez	a5,10ae4 <__muldf3+0x278>
   10a4c:	00145793          	srli	a5,s0,0x1
   10a50:	00147413          	andi	s0,s0,1
   10a54:	0087e433          	or	s0,a5,s0
   10a58:	3ff68793          	addi	a5,a3,1023
   10a5c:	08f05863          	blez	a5,10aec <__muldf3+0x280>
   10a60:	00747713          	andi	a4,s0,7
   10a64:	00070a63          	beqz	a4,10a78 <__muldf3+0x20c>
   10a68:	00f47713          	andi	a4,s0,15
   10a6c:	00400613          	li	a2,4
   10a70:	00c70463          	beq	a4,a2,10a78 <__muldf3+0x20c>
   10a74:	00440413          	addi	s0,s0,4
   10a78:	00741713          	slli	a4,s0,0x7
   10a7c:	00075c63          	bgez	a4,10a94 <__muldf3+0x228>
   10a80:	fff00793          	li	a5,-1
   10a84:	03879793          	slli	a5,a5,0x38
   10a88:	fff78793          	addi	a5,a5,-1
   10a8c:	00f47433          	and	s0,s0,a5
   10a90:	40068793          	addi	a5,a3,1024
   10a94:	7fe00713          	li	a4,2046
   10a98:	00345413          	srli	s0,s0,0x3
   10a9c:	0af75c63          	bge	a4,a5,10b54 <__muldf3+0x2e8>
   10aa0:	00000413          	li	s0,0
   10aa4:	7ff00793          	li	a5,2047
   10aa8:	0ac0006f          	j	10b54 <__muldf3+0x2e8>
   10aac:	00090513          	mv	a0,s2
   10ab0:	00048413          	mv	s0,s1
   10ab4:	000a8793          	mv	a5,s5
   10ab8:	00200713          	li	a4,2
   10abc:	fee782e3          	beq	a5,a4,10aa0 <__muldf3+0x234>
   10ac0:	00300713          	li	a4,3
   10ac4:	08e78063          	beq	a5,a4,10b44 <__muldf3+0x2d8>
   10ac8:	00100713          	li	a4,1
   10acc:	f8e796e3          	bne	a5,a4,10a58 <__muldf3+0x1ec>
   10ad0:	00000413          	li	s0,0
   10ad4:	00000793          	li	a5,0
   10ad8:	07c0006f          	j	10b54 <__muldf3+0x2e8>
   10adc:	000a0513          	mv	a0,s4
   10ae0:	fd9ff06f          	j	10ab8 <__muldf3+0x24c>
   10ae4:	00098693          	mv	a3,s3
   10ae8:	f71ff06f          	j	10a58 <__muldf3+0x1ec>
   10aec:	00100713          	li	a4,1
   10af0:	40f70733          	sub	a4,a4,a5
   10af4:	03800793          	li	a5,56
   10af8:	fce7cce3          	blt	a5,a4,10ad0 <__muldf3+0x264>
   10afc:	04000693          	li	a3,64
   10b00:	00e457b3          	srl	a5,s0,a4
   10b04:	40e6873b          	subw	a4,a3,a4
   10b08:	00e41433          	sll	s0,s0,a4
   10b0c:	00803433          	snez	s0,s0
   10b10:	0087e433          	or	s0,a5,s0
   10b14:	00747793          	andi	a5,s0,7
   10b18:	00078a63          	beqz	a5,10b2c <__muldf3+0x2c0>
   10b1c:	00f47793          	andi	a5,s0,15
   10b20:	00400713          	li	a4,4
   10b24:	00e78463          	beq	a5,a4,10b2c <__muldf3+0x2c0>
   10b28:	00440413          	addi	s0,s0,4
   10b2c:	00841793          	slli	a5,s0,0x8
   10b30:	00345413          	srli	s0,s0,0x3
   10b34:	fa07d0e3          	bgez	a5,10ad4 <__muldf3+0x268>
   10b38:	00000413          	li	s0,0
   10b3c:	00100793          	li	a5,1
   10b40:	0140006f          	j	10b54 <__muldf3+0x2e8>
   10b44:	00100413          	li	s0,1
   10b48:	03341413          	slli	s0,s0,0x33
   10b4c:	7ff00793          	li	a5,2047
   10b50:	00000513          	li	a0,0
   10b54:	7ff7f793          	andi	a5,a5,2047
   10b58:	00c41413          	slli	s0,s0,0xc
   10b5c:	03479793          	slli	a5,a5,0x34
   10b60:	00c45413          	srli	s0,s0,0xc
   10b64:	0087e433          	or	s0,a5,s0
   10b68:	03f51513          	slli	a0,a0,0x3f
   10b6c:	03813083          	ld	ra,56(sp)
   10b70:	00a46533          	or	a0,s0,a0
   10b74:	03013403          	ld	s0,48(sp)
   10b78:	02813483          	ld	s1,40(sp)
   10b7c:	02013903          	ld	s2,32(sp)
   10b80:	01813983          	ld	s3,24(sp)
   10b84:	01013a03          	ld	s4,16(sp)
   10b88:	00813a83          	ld	s5,8(sp)
   10b8c:	04010113          	addi	sp,sp,64
   10b90:	00008067          	ret

0000000000010b94 <__subdf3>:
   10b94:	fff00713          	li	a4,-1
   10b98:	fe010113          	addi	sp,sp,-32
   10b9c:	00c75713          	srli	a4,a4,0xc
   10ba0:	0345d613          	srli	a2,a1,0x34
   10ba4:	03455813          	srli	a6,a0,0x34
   10ba8:	00a777b3          	and	a5,a4,a0
   10bac:	00813823          	sd	s0,16(sp)
   10bb0:	00b77733          	and	a4,a4,a1
   10bb4:	00913423          	sd	s1,8(sp)
   10bb8:	7ff87813          	andi	a6,a6,2047
   10bbc:	00113c23          	sd	ra,24(sp)
   10bc0:	01213023          	sd	s2,0(sp)
   10bc4:	7ff67613          	andi	a2,a2,2047
   10bc8:	7ff00693          	li	a3,2047
   10bcc:	00080413          	mv	s0,a6
   10bd0:	03f55493          	srli	s1,a0,0x3f
   10bd4:	00379793          	slli	a5,a5,0x3
   10bd8:	03f5d593          	srli	a1,a1,0x3f
   10bdc:	00371713          	slli	a4,a4,0x3
   10be0:	00d61463          	bne	a2,a3,10be8 <__subdf3+0x54>
   10be4:	00071463          	bnez	a4,10bec <__subdf3+0x58>
   10be8:	0015c593          	xori	a1,a1,1
   10bec:	40c806bb          	subw	a3,a6,a2
   10bf0:	0006851b          	sext.w	a0,a3
   10bf4:	18959e63          	bne	a1,s1,10d90 <__subdf3+0x1fc>
   10bf8:	0aa05863          	blez	a0,10ca8 <__subdf3+0x114>
   10bfc:	06061663          	bnez	a2,10c68 <__subdf3+0xd4>
   10c00:	04070663          	beqz	a4,10c4c <__subdf3+0xb8>
   10c04:	fff6851b          	addiw	a0,a3,-1
   10c08:	02051e63          	bnez	a0,10c44 <__subdf3+0xb0>
   10c0c:	00e787b3          	add	a5,a5,a4
   10c10:	00879713          	slli	a4,a5,0x8
   10c14:	02075c63          	bgez	a4,10c4c <__subdf3+0xb8>
   10c18:	00140413          	addi	s0,s0,1
   10c1c:	7ff00713          	li	a4,2047
   10c20:	36e40263          	beq	s0,a4,10f84 <__subdf3+0x3f0>
   10c24:	1ff00713          	li	a4,511
   10c28:	03671713          	slli	a4,a4,0x36
   10c2c:	0017f693          	andi	a3,a5,1
   10c30:	fff70713          	addi	a4,a4,-1
   10c34:	0017d793          	srli	a5,a5,0x1
   10c38:	00e7f7b3          	and	a5,a5,a4
   10c3c:	00d7e7b3          	or	a5,a5,a3
   10c40:	00c0006f          	j	10c4c <__subdf3+0xb8>
   10c44:	7ff00693          	li	a3,2047
   10c48:	02d81a63          	bne	a6,a3,10c7c <__subdf3+0xe8>
   10c4c:	0077f713          	andi	a4,a5,7
   10c50:	32070c63          	beqz	a4,10f88 <__subdf3+0x3f4>
   10c54:	00f7f713          	andi	a4,a5,15
   10c58:	00400693          	li	a3,4
   10c5c:	32d70663          	beq	a4,a3,10f88 <__subdf3+0x3f4>
   10c60:	00478793          	addi	a5,a5,4
   10c64:	3240006f          	j	10f88 <__subdf3+0x3f4>
   10c68:	7ff00693          	li	a3,2047
   10c6c:	fed800e3          	beq	a6,a3,10c4c <__subdf3+0xb8>
   10c70:	00100693          	li	a3,1
   10c74:	03769693          	slli	a3,a3,0x37
   10c78:	00d76733          	or	a4,a4,a3
   10c7c:	03800613          	li	a2,56
   10c80:	00100693          	li	a3,1
   10c84:	00a64e63          	blt	a2,a0,10ca0 <__subdf3+0x10c>
   10c88:	04000693          	li	a3,64
   10c8c:	00a75633          	srl	a2,a4,a0
   10c90:	40a6853b          	subw	a0,a3,a0
   10c94:	00a71733          	sll	a4,a4,a0
   10c98:	00e03733          	snez	a4,a4
   10c9c:	00e666b3          	or	a3,a2,a4
   10ca0:	00d787b3          	add	a5,a5,a3
   10ca4:	f6dff06f          	j	10c10 <__subdf3+0x7c>
   10ca8:	06050c63          	beqz	a0,10d20 <__subdf3+0x18c>
   10cac:	04081c63          	bnez	a6,10d04 <__subdf3+0x170>
   10cb0:	2a078a63          	beqz	a5,10f64 <__subdf3+0x3d0>
   10cb4:	fff00593          	li	a1,-1
   10cb8:	00b51863          	bne	a0,a1,10cc8 <__subdf3+0x134>
   10cbc:	00e787b3          	add	a5,a5,a4
   10cc0:	00060413          	mv	s0,a2
   10cc4:	f4dff06f          	j	10c10 <__subdf3+0x7c>
   10cc8:	7ff00593          	li	a1,2047
   10ccc:	2ab60663          	beq	a2,a1,10f78 <__subdf3+0x3e4>
   10cd0:	fff6c693          	not	a3,a3
   10cd4:	0006869b          	sext.w	a3,a3
   10cd8:	03800513          	li	a0,56
   10cdc:	00100593          	li	a1,1
   10ce0:	00d54e63          	blt	a0,a3,10cfc <__subdf3+0x168>
   10ce4:	04000593          	li	a1,64
   10ce8:	00d7d533          	srl	a0,a5,a3
   10cec:	40d586bb          	subw	a3,a1,a3
   10cf0:	00d797b3          	sll	a5,a5,a3
   10cf4:	00f037b3          	snez	a5,a5
   10cf8:	00f565b3          	or	a1,a0,a5
   10cfc:	00e587b3          	add	a5,a1,a4
   10d00:	fc1ff06f          	j	10cc0 <__subdf3+0x12c>
   10d04:	7ff00593          	li	a1,2047
   10d08:	26b60863          	beq	a2,a1,10f78 <__subdf3+0x3e4>
   10d0c:	00100593          	li	a1,1
   10d10:	03759593          	slli	a1,a1,0x37
   10d14:	40d006bb          	negw	a3,a3
   10d18:	00b7e7b3          	or	a5,a5,a1
   10d1c:	fbdff06f          	j	10cd8 <__subdf3+0x144>
   10d20:	00180693          	addi	a3,a6,1
   10d24:	7fe6f613          	andi	a2,a3,2046
   10d28:	04061863          	bnez	a2,10d78 <__subdf3+0x1e4>
   10d2c:	02081863          	bnez	a6,10d5c <__subdf3+0x1c8>
   10d30:	24078063          	beqz	a5,10f70 <__subdf3+0x3dc>
   10d34:	f0070ce3          	beqz	a4,10c4c <__subdf3+0xb8>
   10d38:	00e787b3          	add	a5,a5,a4
   10d3c:	00879713          	slli	a4,a5,0x8
   10d40:	f00756e3          	bgez	a4,10c4c <__subdf3+0xb8>
   10d44:	fff00713          	li	a4,-1
   10d48:	03771713          	slli	a4,a4,0x37
   10d4c:	fff70713          	addi	a4,a4,-1
   10d50:	00e7f7b3          	and	a5,a5,a4
   10d54:	00100413          	li	s0,1
   10d58:	ef5ff06f          	j	10c4c <__subdf3+0xb8>
   10d5c:	20078e63          	beqz	a5,10f78 <__subdf3+0x3e4>
   10d60:	18070063          	beqz	a4,10ee0 <__subdf3+0x34c>
   10d64:	00100793          	li	a5,1
   10d68:	00000493          	li	s1,0
   10d6c:	03679793          	slli	a5,a5,0x36
   10d70:	7ff00413          	li	s0,2047
   10d74:	2140006f          	j	10f88 <__subdf3+0x3f4>
   10d78:	7ff00613          	li	a2,2047
   10d7c:	20c68263          	beq	a3,a2,10f80 <__subdf3+0x3ec>
   10d80:	00e787b3          	add	a5,a5,a4
   10d84:	0017d793          	srli	a5,a5,0x1
   10d88:	00068413          	mv	s0,a3
   10d8c:	ec1ff06f          	j	10c4c <__subdf3+0xb8>
   10d90:	06a05c63          	blez	a0,10e08 <__subdf3+0x274>
   10d94:	04061e63          	bnez	a2,10df0 <__subdf3+0x25c>
   10d98:	ea070ae3          	beqz	a4,10c4c <__subdf3+0xb8>
   10d9c:	fff6851b          	addiw	a0,a3,-1
   10da0:	00051e63          	bnez	a0,10dbc <__subdf3+0x228>
   10da4:	40e787b3          	sub	a5,a5,a4
   10da8:	00879713          	slli	a4,a5,0x8
   10dac:	ea0750e3          	bgez	a4,10c4c <__subdf3+0xb8>
   10db0:	00979793          	slli	a5,a5,0x9
   10db4:	0097d913          	srli	s2,a5,0x9
   10db8:	1440006f          	j	10efc <__subdf3+0x368>
   10dbc:	7ff00693          	li	a3,2047
   10dc0:	e8d806e3          	beq	a6,a3,10c4c <__subdf3+0xb8>
   10dc4:	03800613          	li	a2,56
   10dc8:	00100693          	li	a3,1
   10dcc:	00a64e63          	blt	a2,a0,10de8 <__subdf3+0x254>
   10dd0:	04000693          	li	a3,64
   10dd4:	00a75633          	srl	a2,a4,a0
   10dd8:	40a6853b          	subw	a0,a3,a0
   10ddc:	00a71733          	sll	a4,a4,a0
   10de0:	00e03733          	snez	a4,a4
   10de4:	00e666b3          	or	a3,a2,a4
   10de8:	40d787b3          	sub	a5,a5,a3
   10dec:	fbdff06f          	j	10da8 <__subdf3+0x214>
   10df0:	7ff00693          	li	a3,2047
   10df4:	e4d80ce3          	beq	a6,a3,10c4c <__subdf3+0xb8>
   10df8:	00100693          	li	a3,1
   10dfc:	03769693          	slli	a3,a3,0x37
   10e00:	00d76733          	or	a4,a4,a3
   10e04:	fc1ff06f          	j	10dc4 <__subdf3+0x230>
   10e08:	06050e63          	beqz	a0,10e84 <__subdf3+0x2f0>
   10e0c:	04081e63          	bnez	a6,10e68 <__subdf3+0x2d4>
   10e10:	1e078663          	beqz	a5,10ffc <__subdf3+0x468>
   10e14:	fff00813          	li	a6,-1
   10e18:	01051a63          	bne	a0,a6,10e2c <__subdf3+0x298>
   10e1c:	40f707b3          	sub	a5,a4,a5
   10e20:	00060413          	mv	s0,a2
   10e24:	00058493          	mv	s1,a1
   10e28:	f81ff06f          	j	10da8 <__subdf3+0x214>
   10e2c:	7ff00513          	li	a0,2047
   10e30:	1ca60c63          	beq	a2,a0,11008 <__subdf3+0x474>
   10e34:	fff6c693          	not	a3,a3
   10e38:	0006869b          	sext.w	a3,a3
   10e3c:	03800813          	li	a6,56
   10e40:	00100513          	li	a0,1
   10e44:	00d84e63          	blt	a6,a3,10e60 <__subdf3+0x2cc>
   10e48:	04000513          	li	a0,64
   10e4c:	00d7d833          	srl	a6,a5,a3
   10e50:	40d506bb          	subw	a3,a0,a3
   10e54:	00d797b3          	sll	a5,a5,a3
   10e58:	00f037b3          	snez	a5,a5
   10e5c:	00f86533          	or	a0,a6,a5
   10e60:	40a707b3          	sub	a5,a4,a0
   10e64:	fbdff06f          	j	10e20 <__subdf3+0x28c>
   10e68:	7ff00513          	li	a0,2047
   10e6c:	18a60e63          	beq	a2,a0,11008 <__subdf3+0x474>
   10e70:	00100513          	li	a0,1
   10e74:	03751513          	slli	a0,a0,0x37
   10e78:	40d006bb          	negw	a3,a3
   10e7c:	00a7e7b3          	or	a5,a5,a0
   10e80:	fbdff06f          	j	10e3c <__subdf3+0x2a8>
   10e84:	00180693          	addi	a3,a6,1
   10e88:	7fe6f693          	andi	a3,a3,2046
   10e8c:	04069e63          	bnez	a3,10ee8 <__subdf3+0x354>
   10e90:	04081063          	bnez	a6,10ed0 <__subdf3+0x33c>
   10e94:	00079c63          	bnez	a5,10eac <__subdf3+0x318>
   10e98:	00000493          	li	s1,0
   10e9c:	0e070663          	beqz	a4,10f88 <__subdf3+0x3f4>
   10ea0:	00070793          	mv	a5,a4
   10ea4:	00058493          	mv	s1,a1
   10ea8:	da5ff06f          	j	10c4c <__subdf3+0xb8>
   10eac:	da0700e3          	beqz	a4,10c4c <__subdf3+0xb8>
   10eb0:	40e786b3          	sub	a3,a5,a4
   10eb4:	00869613          	slli	a2,a3,0x8
   10eb8:	40f707b3          	sub	a5,a4,a5
   10ebc:	fe0644e3          	bltz	a2,10ea4 <__subdf3+0x310>
   10ec0:	00000793          	li	a5,0
   10ec4:	08068063          	beqz	a3,10f44 <__subdf3+0x3b0>
   10ec8:	00068793          	mv	a5,a3
   10ecc:	d81ff06f          	j	10c4c <__subdf3+0xb8>
   10ed0:	e80798e3          	bnez	a5,10d60 <__subdf3+0x1cc>
   10ed4:	e80708e3          	beqz	a4,10d64 <__subdf3+0x1d0>
   10ed8:	00070793          	mv	a5,a4
   10edc:	00058493          	mv	s1,a1
   10ee0:	7ff00413          	li	s0,2047
   10ee4:	d69ff06f          	j	10c4c <__subdf3+0xb8>
   10ee8:	40e78933          	sub	s2,a5,a4
   10eec:	00891693          	slli	a3,s2,0x8
   10ef0:	0406d463          	bgez	a3,10f38 <__subdf3+0x3a4>
   10ef4:	40f70933          	sub	s2,a4,a5
   10ef8:	00058493          	mv	s1,a1
   10efc:	00090513          	mv	a0,s2
   10f00:	374000ef          	jal	ra,11274 <__clzdi2>
   10f04:	ff85079b          	addiw	a5,a0,-8
   10f08:	00f91933          	sll	s2,s2,a5
   10f0c:	0487c063          	blt	a5,s0,10f4c <__subdf3+0x3b8>
   10f10:	4087853b          	subw	a0,a5,s0
   10f14:	0015051b          	addiw	a0,a0,1
   10f18:	04000413          	li	s0,64
   10f1c:	00a957b3          	srl	a5,s2,a0
   10f20:	40a4053b          	subw	a0,s0,a0
   10f24:	00a91933          	sll	s2,s2,a0
   10f28:	01203933          	snez	s2,s2
   10f2c:	0127e7b3          	or	a5,a5,s2
   10f30:	00000413          	li	s0,0
   10f34:	d19ff06f          	j	10c4c <__subdf3+0xb8>
   10f38:	fc0912e3          	bnez	s2,10efc <__subdf3+0x368>
   10f3c:	00000793          	li	a5,0
   10f40:	00000413          	li	s0,0
   10f44:	00000493          	li	s1,0
   10f48:	0400006f          	j	10f88 <__subdf3+0x3f4>
   10f4c:	40f40433          	sub	s0,s0,a5
   10f50:	fff00793          	li	a5,-1
   10f54:	03779793          	slli	a5,a5,0x37
   10f58:	fff78793          	addi	a5,a5,-1
   10f5c:	00f977b3          	and	a5,s2,a5
   10f60:	cedff06f          	j	10c4c <__subdf3+0xb8>
   10f64:	00070793          	mv	a5,a4
   10f68:	00060413          	mv	s0,a2
   10f6c:	ce1ff06f          	j	10c4c <__subdf3+0xb8>
   10f70:	00070793          	mv	a5,a4
   10f74:	cd9ff06f          	j	10c4c <__subdf3+0xb8>
   10f78:	00070793          	mv	a5,a4
   10f7c:	f65ff06f          	j	10ee0 <__subdf3+0x34c>
   10f80:	7ff00413          	li	s0,2047
   10f84:	00000793          	li	a5,0
   10f88:	00879713          	slli	a4,a5,0x8
   10f8c:	02075063          	bgez	a4,10fac <__subdf3+0x418>
   10f90:	00140413          	addi	s0,s0,1
   10f94:	7ff00713          	li	a4,2047
   10f98:	06e40e63          	beq	s0,a4,11014 <__subdf3+0x480>
   10f9c:	fff00713          	li	a4,-1
   10fa0:	03771713          	slli	a4,a4,0x37
   10fa4:	fff70713          	addi	a4,a4,-1
   10fa8:	00e7f7b3          	and	a5,a5,a4
   10fac:	7ff00713          	li	a4,2047
   10fb0:	0037d793          	srli	a5,a5,0x3
   10fb4:	00e41a63          	bne	s0,a4,10fc8 <__subdf3+0x434>
   10fb8:	00078863          	beqz	a5,10fc8 <__subdf3+0x434>
   10fbc:	00100793          	li	a5,1
   10fc0:	03379793          	slli	a5,a5,0x33
   10fc4:	00000493          	li	s1,0
   10fc8:	7ff47413          	andi	s0,s0,2047
   10fcc:	00c79793          	slli	a5,a5,0xc
   10fd0:	03441413          	slli	s0,s0,0x34
   10fd4:	00c7d793          	srli	a5,a5,0xc
   10fd8:	01813083          	ld	ra,24(sp)
   10fdc:	00f467b3          	or	a5,s0,a5
   10fe0:	01013403          	ld	s0,16(sp)
   10fe4:	03f49513          	slli	a0,s1,0x3f
   10fe8:	00013903          	ld	s2,0(sp)
   10fec:	00813483          	ld	s1,8(sp)
   10ff0:	00a7e533          	or	a0,a5,a0
   10ff4:	02010113          	addi	sp,sp,32
   10ff8:	00008067          	ret
   10ffc:	00070793          	mv	a5,a4
   11000:	00060413          	mv	s0,a2
   11004:	ea1ff06f          	j	10ea4 <__subdf3+0x310>
   11008:	00070793          	mv	a5,a4
   1100c:	7ff00413          	li	s0,2047
   11010:	e95ff06f          	j	10ea4 <__subdf3+0x310>
   11014:	00000793          	li	a5,0
   11018:	f95ff06f          	j	10fac <__subdf3+0x418>

000000000001101c <__floatsidf>:
   1101c:	fe010113          	addi	sp,sp,-32
   11020:	00113c23          	sd	ra,24(sp)
   11024:	00813823          	sd	s0,16(sp)
   11028:	00913423          	sd	s1,8(sp)
   1102c:	06050263          	beqz	a0,11090 <__floatsidf+0x74>
   11030:	0005079b          	sext.w	a5,a0
   11034:	03f55493          	srli	s1,a0,0x3f
   11038:	00055463          	bgez	a0,11040 <__floatsidf+0x24>
   1103c:	40f007bb          	negw	a5,a5
   11040:	02079413          	slli	s0,a5,0x20
   11044:	02045413          	srli	s0,s0,0x20
   11048:	00040513          	mv	a0,s0
   1104c:	228000ef          	jal	ra,11274 <__clzdi2>
   11050:	43e00793          	li	a5,1086
   11054:	40a7873b          	subw	a4,a5,a0
   11058:	43300793          	li	a5,1075
   1105c:	40e787bb          	subw	a5,a5,a4
   11060:	00f417b3          	sll	a5,s0,a5
   11064:	01813083          	ld	ra,24(sp)
   11068:	01013403          	ld	s0,16(sp)
   1106c:	00c79793          	slli	a5,a5,0xc
   11070:	03471713          	slli	a4,a4,0x34
   11074:	00c7d793          	srli	a5,a5,0xc
   11078:	03f49513          	slli	a0,s1,0x3f
   1107c:	00f767b3          	or	a5,a4,a5
   11080:	00813483          	ld	s1,8(sp)
   11084:	00a7e533          	or	a0,a5,a0
   11088:	02010113          	addi	sp,sp,32
   1108c:	00008067          	ret
   11090:	00000793          	li	a5,0
   11094:	00000713          	li	a4,0
   11098:	00000493          	li	s1,0
   1109c:	fc9ff06f          	j	11064 <__floatsidf+0x48>

00000000000110a0 <__extendsfdf2>:
   110a0:	0175579b          	srliw	a5,a0,0x17
   110a4:	fe010113          	addi	sp,sp,-32
   110a8:	0ff7f793          	andi	a5,a5,255
   110ac:	00813823          	sd	s0,16(sp)
   110b0:	00913423          	sd	s1,8(sp)
   110b4:	02951413          	slli	s0,a0,0x29
   110b8:	01f5549b          	srliw	s1,a0,0x1f
   110bc:	00178513          	addi	a0,a5,1
   110c0:	00113c23          	sd	ra,24(sp)
   110c4:	0fe57513          	andi	a0,a0,254
   110c8:	02945413          	srli	s0,s0,0x29
   110cc:	02050c63          	beqz	a0,11104 <__extendsfdf2+0x64>
   110d0:	38078513          	addi	a0,a5,896
   110d4:	01d41413          	slli	s0,s0,0x1d
   110d8:	00c41413          	slli	s0,s0,0xc
   110dc:	03451513          	slli	a0,a0,0x34
   110e0:	00c45413          	srli	s0,s0,0xc
   110e4:	00856433          	or	s0,a0,s0
   110e8:	03f49513          	slli	a0,s1,0x3f
   110ec:	01813083          	ld	ra,24(sp)
   110f0:	00a46533          	or	a0,s0,a0
   110f4:	01013403          	ld	s0,16(sp)
   110f8:	00813483          	ld	s1,8(sp)
   110fc:	02010113          	addi	sp,sp,32
   11100:	00008067          	ret
   11104:	02079263          	bnez	a5,11128 <__extendsfdf2+0x88>
   11108:	fc0408e3          	beqz	s0,110d8 <__extendsfdf2+0x38>
   1110c:	00040513          	mv	a0,s0
   11110:	164000ef          	jal	ra,11274 <__clzdi2>
   11114:	ff55079b          	addiw	a5,a0,-11
   11118:	00f41433          	sll	s0,s0,a5
   1111c:	3a900793          	li	a5,937
   11120:	40a7853b          	subw	a0,a5,a0
   11124:	fb5ff06f          	j	110d8 <__extendsfdf2+0x38>
   11128:	7ff00513          	li	a0,2047
   1112c:	fa0406e3          	beqz	s0,110d8 <__extendsfdf2+0x38>
   11130:	00100793          	li	a5,1
   11134:	01d41413          	slli	s0,s0,0x1d
   11138:	03379793          	slli	a5,a5,0x33
   1113c:	00f46433          	or	s0,s0,a5
   11140:	f99ff06f          	j	110d8 <__extendsfdf2+0x38>

0000000000011144 <__truncdfsf2>:
   11144:	03455713          	srli	a4,a0,0x34
   11148:	7ff77713          	andi	a4,a4,2047
   1114c:	00170613          	addi	a2,a4,1
   11150:	00c51793          	slli	a5,a0,0xc
   11154:	7fe67613          	andi	a2,a2,2046
   11158:	00c7d693          	srli	a3,a5,0xc
   1115c:	03f55513          	srli	a0,a0,0x3f
   11160:	0097d793          	srli	a5,a5,0x9
   11164:	06060463          	beqz	a2,111cc <__truncdfsf2+0x88>
   11168:	c8070713          	addi	a4,a4,-896
   1116c:	0fe00613          	li	a2,254
   11170:	08e64063          	blt	a2,a4,111f0 <__truncdfsf2+0xac>
   11174:	04e04263          	bgtz	a4,111b8 <__truncdfsf2+0x74>
   11178:	fe900693          	li	a3,-23
   1117c:	0cd74a63          	blt	a4,a3,11250 <__truncdfsf2+0x10c>
   11180:	00100693          	li	a3,1
   11184:	03769693          	slli	a3,a3,0x37
   11188:	00d7e7b3          	or	a5,a5,a3
   1118c:	01e00693          	li	a3,30
   11190:	40e686bb          	subw	a3,a3,a4
   11194:	0227071b          	addiw	a4,a4,34
   11198:	00d7d6b3          	srl	a3,a5,a3
   1119c:	00e797b3          	sll	a5,a5,a4
   111a0:	00f037b3          	snez	a5,a5
   111a4:	00f6e7b3          	or	a5,a3,a5
   111a8:	00000713          	li	a4,0
   111ac:	0077f693          	andi	a3,a5,7
   111b0:	04068463          	beqz	a3,111f8 <__truncdfsf2+0xb4>
   111b4:	0a40006f          	j	11258 <__truncdfsf2+0x114>
   111b8:	02669693          	slli	a3,a3,0x26
   111bc:	01d7d793          	srli	a5,a5,0x1d
   111c0:	00d036b3          	snez	a3,a3
   111c4:	00d7e7b3          	or	a5,a5,a3
   111c8:	fe5ff06f          	j	111ac <__truncdfsf2+0x68>
   111cc:	00071663          	bnez	a4,111d8 <__truncdfsf2+0x94>
   111d0:	00f037b3          	snez	a5,a5
   111d4:	fd9ff06f          	j	111ac <__truncdfsf2+0x68>
   111d8:	0ff00713          	li	a4,255
   111dc:	00078e63          	beqz	a5,111f8 <__truncdfsf2+0xb4>
   111e0:	01d7d793          	srli	a5,a5,0x1d
   111e4:	ff87f793          	andi	a5,a5,-8
   111e8:	020006b7          	lui	a3,0x2000
   111ec:	fd9ff06f          	j	111c4 <__truncdfsf2+0x80>
   111f0:	00000793          	li	a5,0
   111f4:	0ff00713          	li	a4,255
   111f8:	02579693          	slli	a3,a5,0x25
   111fc:	0006de63          	bgez	a3,11218 <__truncdfsf2+0xd4>
   11200:	00170713          	addi	a4,a4,1
   11204:	0ff00693          	li	a3,255
   11208:	06d70263          	beq	a4,a3,1126c <__truncdfsf2+0x128>
   1120c:	fc0006b7          	lui	a3,0xfc000
   11210:	fff68693          	addi	a3,a3,-1 # fffffffffbffffff <__BSS_END__+0xfffffffffbfed7cf>
   11214:	00d7f7b3          	and	a5,a5,a3
   11218:	0ff00693          	li	a3,255
   1121c:	0037d793          	srli	a5,a5,0x3
   11220:	00d71863          	bne	a4,a3,11230 <__truncdfsf2+0xec>
   11224:	00078663          	beqz	a5,11230 <__truncdfsf2+0xec>
   11228:	004007b7          	lui	a5,0x400
   1122c:	00000513          	li	a0,0
   11230:	0ff77713          	andi	a4,a4,255
   11234:	02979793          	slli	a5,a5,0x29
   11238:	0177171b          	slliw	a4,a4,0x17
   1123c:	0297d793          	srli	a5,a5,0x29
   11240:	00e7e7b3          	or	a5,a5,a4
   11244:	01f5151b          	slliw	a0,a0,0x1f
   11248:	00f56533          	or	a0,a0,a5
   1124c:	00008067          	ret
   11250:	00100793          	li	a5,1
   11254:	00000713          	li	a4,0
   11258:	00f7f693          	andi	a3,a5,15
   1125c:	00400613          	li	a2,4
   11260:	f8c68ce3          	beq	a3,a2,111f8 <__truncdfsf2+0xb4>
   11264:	00478793          	addi	a5,a5,4 # 400004 <__BSS_END__+0x3ed7d4>
   11268:	f91ff06f          	j	111f8 <__truncdfsf2+0xb4>
   1126c:	00000793          	li	a5,0
   11270:	fa9ff06f          	j	11218 <__truncdfsf2+0xd4>

0000000000011274 <__clzdi2>:
   11274:	03800793          	li	a5,56
   11278:	00f55733          	srl	a4,a0,a5
   1127c:	0ff77713          	andi	a4,a4,255
   11280:	00071663          	bnez	a4,1128c <__clzdi2+0x18>
   11284:	ff878793          	addi	a5,a5,-8
   11288:	fe0798e3          	bnez	a5,11278 <__clzdi2+0x4>
   1128c:	00011737          	lui	a4,0x11
   11290:	04000693          	li	a3,64
   11294:	40f686b3          	sub	a3,a3,a5
   11298:	00f55533          	srl	a0,a0,a5
   1129c:	73070793          	addi	a5,a4,1840 # 11730 <__clz_tab>
   112a0:	00a78533          	add	a0,a5,a0
   112a4:	00054503          	lbu	a0,0(a0) # 12000 <__FRAME_END__>
   112a8:	40a6853b          	subw	a0,a3,a0
   112ac:	00008067          	ret

00000000000112b0 <exit>:
   112b0:	ff010113          	addi	sp,sp,-16
   112b4:	00000593          	li	a1,0
   112b8:	00813023          	sd	s0,0(sp)
   112bc:	00113423          	sd	ra,8(sp)
   112c0:	00050413          	mv	s0,a0
   112c4:	194000ef          	jal	ra,11458 <__call_exitprocs>
   112c8:	fc01b503          	ld	a0,-64(gp) # 127e0 <_global_impure_ptr>
   112cc:	05853783          	ld	a5,88(a0)
   112d0:	00078463          	beqz	a5,112d8 <exit+0x28>
   112d4:	000780e7          	jalr	a5
   112d8:	00040513          	mv	a0,s0
   112dc:	3bc000ef          	jal	ra,11698 <_exit>

00000000000112e0 <__libc_init_array>:
   112e0:	fe010113          	addi	sp,sp,-32
   112e4:	00813823          	sd	s0,16(sp)
   112e8:	01213023          	sd	s2,0(sp)
   112ec:	00012437          	lui	s0,0x12
   112f0:	00012937          	lui	s2,0x12
   112f4:	00440793          	addi	a5,s0,4 # 12004 <__preinit_array_end>
   112f8:	00490913          	addi	s2,s2,4 # 12004 <__preinit_array_end>
   112fc:	40f90933          	sub	s2,s2,a5
   11300:	00113c23          	sd	ra,24(sp)
   11304:	00913423          	sd	s1,8(sp)
   11308:	40395913          	srai	s2,s2,0x3
   1130c:	02090063          	beqz	s2,1132c <__libc_init_array+0x4c>
   11310:	00440413          	addi	s0,s0,4
   11314:	00000493          	li	s1,0
   11318:	00043783          	ld	a5,0(s0)
   1131c:	00148493          	addi	s1,s1,1
   11320:	00840413          	addi	s0,s0,8
   11324:	000780e7          	jalr	a5
   11328:	fe9918e3          	bne	s2,s1,11318 <__libc_init_array+0x38>
   1132c:	00012437          	lui	s0,0x12
   11330:	00012937          	lui	s2,0x12
   11334:	00840793          	addi	a5,s0,8 # 12008 <__init_array_start>
   11338:	01890913          	addi	s2,s2,24 # 12018 <__do_global_dtors_aux_fini_array_entry>
   1133c:	40f90933          	sub	s2,s2,a5
   11340:	40395913          	srai	s2,s2,0x3
   11344:	02090063          	beqz	s2,11364 <__libc_init_array+0x84>
   11348:	00840413          	addi	s0,s0,8
   1134c:	00000493          	li	s1,0
   11350:	00043783          	ld	a5,0(s0)
   11354:	00148493          	addi	s1,s1,1
   11358:	00840413          	addi	s0,s0,8
   1135c:	000780e7          	jalr	a5
   11360:	fe9918e3          	bne	s2,s1,11350 <__libc_init_array+0x70>
   11364:	01813083          	ld	ra,24(sp)
   11368:	01013403          	ld	s0,16(sp)
   1136c:	00813483          	ld	s1,8(sp)
   11370:	00013903          	ld	s2,0(sp)
   11374:	02010113          	addi	sp,sp,32
   11378:	00008067          	ret

000000000001137c <memset>:
   1137c:	00f00313          	li	t1,15
   11380:	00050713          	mv	a4,a0
   11384:	02c37a63          	bgeu	t1,a2,113b8 <memset+0x3c>
   11388:	00f77793          	andi	a5,a4,15
   1138c:	0a079063          	bnez	a5,1142c <memset+0xb0>
   11390:	06059e63          	bnez	a1,1140c <memset+0x90>
   11394:	ff067693          	andi	a3,a2,-16
   11398:	00f67613          	andi	a2,a2,15
   1139c:	00e686b3          	add	a3,a3,a4
   113a0:	00b73023          	sd	a1,0(a4)
   113a4:	00b73423          	sd	a1,8(a4)
   113a8:	01070713          	addi	a4,a4,16
   113ac:	fed76ae3          	bltu	a4,a3,113a0 <memset+0x24>
   113b0:	00061463          	bnez	a2,113b8 <memset+0x3c>
   113b4:	00008067          	ret
   113b8:	40c306b3          	sub	a3,t1,a2
   113bc:	00269693          	slli	a3,a3,0x2
   113c0:	00000297          	auipc	t0,0x0
   113c4:	005686b3          	add	a3,a3,t0
   113c8:	00c68067          	jr	12(a3)
   113cc:	00b70723          	sb	a1,14(a4)
   113d0:	00b706a3          	sb	a1,13(a4)
   113d4:	00b70623          	sb	a1,12(a4)
   113d8:	00b705a3          	sb	a1,11(a4)
   113dc:	00b70523          	sb	a1,10(a4)
   113e0:	00b704a3          	sb	a1,9(a4)
   113e4:	00b70423          	sb	a1,8(a4)
   113e8:	00b703a3          	sb	a1,7(a4)
   113ec:	00b70323          	sb	a1,6(a4)
   113f0:	00b702a3          	sb	a1,5(a4)
   113f4:	00b70223          	sb	a1,4(a4)
   113f8:	00b701a3          	sb	a1,3(a4)
   113fc:	00b70123          	sb	a1,2(a4)
   11400:	00b700a3          	sb	a1,1(a4)
   11404:	00b70023          	sb	a1,0(a4)
   11408:	00008067          	ret
   1140c:	0ff5f593          	andi	a1,a1,255
   11410:	00859693          	slli	a3,a1,0x8
   11414:	00d5e5b3          	or	a1,a1,a3
   11418:	01059693          	slli	a3,a1,0x10
   1141c:	00d5e5b3          	or	a1,a1,a3
   11420:	02059693          	slli	a3,a1,0x20
   11424:	00d5e5b3          	or	a1,a1,a3
   11428:	f6dff06f          	j	11394 <memset+0x18>
   1142c:	00279693          	slli	a3,a5,0x2
   11430:	00000297          	auipc	t0,0x0
   11434:	005686b3          	add	a3,a3,t0
   11438:	00008293          	mv	t0,ra
   1143c:	f98680e7          	jalr	-104(a3)
   11440:	00028093          	mv	ra,t0
   11444:	ff078793          	addi	a5,a5,-16
   11448:	40f70733          	sub	a4,a4,a5
   1144c:	00f60633          	add	a2,a2,a5
   11450:	f6c374e3          	bgeu	t1,a2,113b8 <memset+0x3c>
   11454:	f3dff06f          	j	11390 <memset+0x14>

0000000000011458 <__call_exitprocs>:
   11458:	fb010113          	addi	sp,sp,-80
   1145c:	03413023          	sd	s4,32(sp)
   11460:	fc01ba03          	ld	s4,-64(gp) # 127e0 <_global_impure_ptr>
   11464:	03213823          	sd	s2,48(sp)
   11468:	04113423          	sd	ra,72(sp)
   1146c:	1f8a3903          	ld	s2,504(s4)
   11470:	04813023          	sd	s0,64(sp)
   11474:	02913c23          	sd	s1,56(sp)
   11478:	03313423          	sd	s3,40(sp)
   1147c:	01513c23          	sd	s5,24(sp)
   11480:	01613823          	sd	s6,16(sp)
   11484:	01713423          	sd	s7,8(sp)
   11488:	01813023          	sd	s8,0(sp)
   1148c:	04090063          	beqz	s2,114cc <__call_exitprocs+0x74>
   11490:	00050b13          	mv	s6,a0
   11494:	00058b93          	mv	s7,a1
   11498:	00100a93          	li	s5,1
   1149c:	fff00993          	li	s3,-1
   114a0:	00892483          	lw	s1,8(s2)
   114a4:	fff4841b          	addiw	s0,s1,-1
   114a8:	02044263          	bltz	s0,114cc <__call_exitprocs+0x74>
   114ac:	00349493          	slli	s1,s1,0x3
   114b0:	009904b3          	add	s1,s2,s1
   114b4:	040b8463          	beqz	s7,114fc <__call_exitprocs+0xa4>
   114b8:	2084b783          	ld	a5,520(s1)
   114bc:	05778063          	beq	a5,s7,114fc <__call_exitprocs+0xa4>
   114c0:	fff4041b          	addiw	s0,s0,-1
   114c4:	ff848493          	addi	s1,s1,-8
   114c8:	ff3416e3          	bne	s0,s3,114b4 <__call_exitprocs+0x5c>
   114cc:	04813083          	ld	ra,72(sp)
   114d0:	04013403          	ld	s0,64(sp)
   114d4:	03813483          	ld	s1,56(sp)
   114d8:	03013903          	ld	s2,48(sp)
   114dc:	02813983          	ld	s3,40(sp)
   114e0:	02013a03          	ld	s4,32(sp)
   114e4:	01813a83          	ld	s5,24(sp)
   114e8:	01013b03          	ld	s6,16(sp)
   114ec:	00813b83          	ld	s7,8(sp)
   114f0:	00013c03          	ld	s8,0(sp)
   114f4:	05010113          	addi	sp,sp,80
   114f8:	00008067          	ret
   114fc:	00892783          	lw	a5,8(s2)
   11500:	0084b703          	ld	a4,8(s1)
   11504:	fff7879b          	addiw	a5,a5,-1
   11508:	06878263          	beq	a5,s0,1156c <__call_exitprocs+0x114>
   1150c:	0004b423          	sd	zero,8(s1)
   11510:	fa0708e3          	beqz	a4,114c0 <__call_exitprocs+0x68>
   11514:	31092783          	lw	a5,784(s2)
   11518:	008a96bb          	sllw	a3,s5,s0
   1151c:	00892c03          	lw	s8,8(s2)
   11520:	00d7f7b3          	and	a5,a5,a3
   11524:	0007879b          	sext.w	a5,a5
   11528:	02079263          	bnez	a5,1154c <__call_exitprocs+0xf4>
   1152c:	000700e7          	jalr	a4
   11530:	00892703          	lw	a4,8(s2)
   11534:	1f8a3783          	ld	a5,504(s4)
   11538:	01871463          	bne	a4,s8,11540 <__call_exitprocs+0xe8>
   1153c:	f8f902e3          	beq	s2,a5,114c0 <__call_exitprocs+0x68>
   11540:	f80786e3          	beqz	a5,114cc <__call_exitprocs+0x74>
   11544:	00078913          	mv	s2,a5
   11548:	f59ff06f          	j	114a0 <__call_exitprocs+0x48>
   1154c:	31492783          	lw	a5,788(s2)
   11550:	1084b583          	ld	a1,264(s1)
   11554:	00d7f7b3          	and	a5,a5,a3
   11558:	0007879b          	sext.w	a5,a5
   1155c:	00079c63          	bnez	a5,11574 <__call_exitprocs+0x11c>
   11560:	000b0513          	mv	a0,s6
   11564:	000700e7          	jalr	a4
   11568:	fc9ff06f          	j	11530 <__call_exitprocs+0xd8>
   1156c:	00892423          	sw	s0,8(s2)
   11570:	fa1ff06f          	j	11510 <__call_exitprocs+0xb8>
   11574:	00058513          	mv	a0,a1
   11578:	000700e7          	jalr	a4
   1157c:	fb5ff06f          	j	11530 <__call_exitprocs+0xd8>

0000000000011580 <__libc_fini_array>:
   11580:	fe010113          	addi	sp,sp,-32
   11584:	00813823          	sd	s0,16(sp)
   11588:	000127b7          	lui	a5,0x12
   1158c:	00012437          	lui	s0,0x12
   11590:	01840413          	addi	s0,s0,24 # 12018 <__do_global_dtors_aux_fini_array_entry>
   11594:	02078793          	addi	a5,a5,32 # 12020 <result_double>
   11598:	408787b3          	sub	a5,a5,s0
   1159c:	00913423          	sd	s1,8(sp)
   115a0:	00113c23          	sd	ra,24(sp)
   115a4:	4037d493          	srai	s1,a5,0x3
   115a8:	02048063          	beqz	s1,115c8 <__libc_fini_array+0x48>
   115ac:	ff878793          	addi	a5,a5,-8
   115b0:	00878433          	add	s0,a5,s0
   115b4:	00043783          	ld	a5,0(s0)
   115b8:	fff48493          	addi	s1,s1,-1
   115bc:	ff840413          	addi	s0,s0,-8
   115c0:	000780e7          	jalr	a5
   115c4:	fe0498e3          	bnez	s1,115b4 <__libc_fini_array+0x34>
   115c8:	01813083          	ld	ra,24(sp)
   115cc:	01013403          	ld	s0,16(sp)
   115d0:	00813483          	ld	s1,8(sp)
   115d4:	02010113          	addi	sp,sp,32
   115d8:	00008067          	ret

00000000000115dc <atexit>:
   115dc:	00050593          	mv	a1,a0
   115e0:	00000693          	li	a3,0
   115e4:	00000613          	li	a2,0
   115e8:	00000513          	li	a0,0
   115ec:	0040006f          	j	115f0 <__register_exitproc>

00000000000115f0 <__register_exitproc>:
   115f0:	fc01b703          	ld	a4,-64(gp) # 127e0 <_global_impure_ptr>
   115f4:	1f873783          	ld	a5,504(a4)
   115f8:	06078063          	beqz	a5,11658 <__register_exitproc+0x68>
   115fc:	0087a703          	lw	a4,8(a5)
   11600:	01f00813          	li	a6,31
   11604:	08e84663          	blt	a6,a4,11690 <__register_exitproc+0xa0>
   11608:	02050863          	beqz	a0,11638 <__register_exitproc+0x48>
   1160c:	00371813          	slli	a6,a4,0x3
   11610:	01078833          	add	a6,a5,a6
   11614:	10c83823          	sd	a2,272(a6)
   11618:	3107a883          	lw	a7,784(a5)
   1161c:	00100613          	li	a2,1
   11620:	00e6163b          	sllw	a2,a2,a4
   11624:	00c8e8b3          	or	a7,a7,a2
   11628:	3117a823          	sw	a7,784(a5)
   1162c:	20d83823          	sd	a3,528(a6)
   11630:	00200693          	li	a3,2
   11634:	02d50863          	beq	a0,a3,11664 <__register_exitproc+0x74>
   11638:	00270693          	addi	a3,a4,2
   1163c:	00369693          	slli	a3,a3,0x3
   11640:	0017071b          	addiw	a4,a4,1
   11644:	00e7a423          	sw	a4,8(a5)
   11648:	00d787b3          	add	a5,a5,a3
   1164c:	00b7b023          	sd	a1,0(a5)
   11650:	00000513          	li	a0,0
   11654:	00008067          	ret
   11658:	20070793          	addi	a5,a4,512
   1165c:	1ef73c23          	sd	a5,504(a4)
   11660:	f9dff06f          	j	115fc <__register_exitproc+0xc>
   11664:	3147a683          	lw	a3,788(a5)
   11668:	00000513          	li	a0,0
   1166c:	00c6e633          	or	a2,a3,a2
   11670:	00270693          	addi	a3,a4,2
   11674:	00369693          	slli	a3,a3,0x3
   11678:	0017071b          	addiw	a4,a4,1
   1167c:	30c7aa23          	sw	a2,788(a5)
   11680:	00e7a423          	sw	a4,8(a5)
   11684:	00d787b3          	add	a5,a5,a3
   11688:	00b7b023          	sd	a1,0(a5)
   1168c:	00008067          	ret
   11690:	fff00513          	li	a0,-1
   11694:	00008067          	ret

0000000000011698 <_exit>:
   11698:	00000593          	li	a1,0
   1169c:	00000613          	li	a2,0
   116a0:	00000693          	li	a3,0
   116a4:	00000713          	li	a4,0
   116a8:	00000793          	li	a5,0
   116ac:	05d00893          	li	a7,93
   116b0:	00000073          	ecall
   116b4:	00054463          	bltz	a0,116bc <_exit+0x24>
   116b8:	0000006f          	j	116b8 <_exit+0x20>
   116bc:	ff010113          	addi	sp,sp,-16
   116c0:	00813023          	sd	s0,0(sp)
   116c4:	00050413          	mv	s0,a0
   116c8:	00113423          	sd	ra,8(sp)
   116cc:	4080043b          	negw	s0,s0
   116d0:	00c000ef          	jal	ra,116dc <__errno>
   116d4:	00852023          	sw	s0,0(a0)
   116d8:	0000006f          	j	116d8 <_exit+0x40>

00000000000116dc <__errno>:
   116dc:	fd01b503          	ld	a0,-48(gp) # 127f0 <_impure_ptr>
   116e0:	00008067          	ret
